target datalayout = "e-m:e-p270:32:32-p271:32:32-p272:64:64-i64:64-i128:128-f80:128-n8:16:32:64-S128"
target triple = "x86_64-pc-linux-gnu"

%"class.pxrInternal_v0_24__pxrReserved__::GfMatrix4d" = type { %"class.pxrInternal_v0_24__pxrReserved__::GfMatrixData" }
%"class.pxrInternal_v0_24__pxrReserved__::GfMatrixData" = type { [16 x double] }
%"class.pxrInternal_v0_24__pxrReserved__::GfVec2d" = type { [2 x double] }
%"class.pxrInternal_v0_24__pxrReserved__::GfFrustum" = type { %"class.pxrInternal_v0_24__pxrReserved__::GfVec3d", %"class.pxrInternal_v0_24__pxrReserved__::GfRotation", %"class.pxrInternal_v0_24__pxrReserved__::GfRange2d", %"class.pxrInternal_v0_24__pxrReserved__::GfRange1d", double, i32, %"struct.std::atomic" }
%"class.pxrInternal_v0_24__pxrReserved__::GfVec3d" = type { [3 x double] }
%"class.pxrInternal_v0_24__pxrReserved__::GfRotation" = type { %"class.pxrInternal_v0_24__pxrReserved__::GfVec3d", double }
%"class.pxrInternal_v0_24__pxrReserved__::GfRange2d" = type { %"class.pxrInternal_v0_24__pxrReserved__::GfVec2d", %"class.pxrInternal_v0_24__pxrReserved__::GfVec2d" }
%"class.pxrInternal_v0_24__pxrReserved__::GfRange1d" = type { double, double }
%"struct.std::atomic" = type { %"struct.std::__atomic_base" }
%"struct.std::__atomic_base" = type { ptr }

; Function Attrs: mustprogress nounwind uwtable
define linkonce_odr noundef ptr @_ZN32pxrInternal_v0_24__pxrReserved__12GfMatrixDataIdLi4ELi4EEixEi(ptr noundef nonnull align 8 dereferenceable(128) %0, i32 noundef %1) #2 comdat align 2 {
  %3 = alloca ptr, align 8
  %4 = alloca i32, align 4
  store ptr %0, ptr %3, align 8
  store i32 %1, ptr %4, align 4
  %5 = load ptr, ptr %3, align 8
  %6 = getelementptr inbounds nuw %"class.pxrInternal_v0_24__pxrReserved__::GfMatrixData", ptr %5, i32 0, i32 0
  %7 = getelementptr inbounds [16 x double], ptr %6, i64 0, i64 0
  %8 = load i32, ptr %4, align 4
  %9 = mul nsw i32 %8, 4
  %10 = sext i32 %9 to i64
  %11 = getelementptr inbounds double, ptr %7, i64 %10
  ret ptr %11
}

; Function Attrs: mustprogress uwtable
define linkonce_odr noundef ptr @_ZN32pxrInternal_v0_24__pxrReserved__10GfMatrix4dixEi(ptr noundef nonnull align 8 dereferenceable(128) %0, i32 noundef %1) #0 comdat align 2 {
  %3 = alloca ptr, align 8
  %4 = alloca i32, align 4
  store ptr %0, ptr %3, align 8
  store i32 %1, ptr %4, align 4
  %5 = load ptr, ptr %3, align 8
  %6 = getelementptr inbounds nuw %"class.pxrInternal_v0_24__pxrReserved__::GfMatrix4d", ptr %5, i32 0, i32 0
  %7 = load i32, ptr %4, align 4
  %8 = call noundef ptr @_ZN32pxrInternal_v0_24__pxrReserved__12GfMatrixDataIdLi4ELi4EEixEi(ptr noundef nonnull align 8 dereferenceable(128) %6, i32 noundef %7)
  ret ptr %8
}

; Function Attrs: mustprogress nounwind uwtable
define linkonce_odr noundef double @_ZNK32pxrInternal_v0_24__pxrReserved__9GfRange1d6GetMaxEv(ptr noundef nonnull align 8 dereferenceable(16) %0) #2 comdat align 2 {
  %2 = alloca ptr, align 8
  store ptr %0, ptr %2, align 8
  %3 = load ptr, ptr %2, align 8
  %4 = getelementptr inbounds nuw %"class.pxrInternal_v0_24__pxrReserved__::GfRange1d", ptr %3, i32 0, i32 1
  %5 = load double, ptr %4, align 8
  ret double %5
}

; Function Attrs: mustprogress nounwind uwtable
define linkonce_odr noundef double @_ZNK32pxrInternal_v0_24__pxrReserved__9GfRange1d6GetMinEv(ptr noundef nonnull align 8 dereferenceable(16) %0) #2 comdat align 2 {
  %2 = alloca ptr, align 8
  store ptr %0, ptr %2, align 8
  %3 = load ptr, ptr %2, align 8
  %4 = getelementptr inbounds nuw %"class.pxrInternal_v0_24__pxrReserved__::GfRange1d", ptr %3, i32 0, i32 0
  %5 = load double, ptr %4, align 8
  ret double %5
}

; Function Attrs: mustprogress nounwind uwtable
define linkonce_odr noundef nonnull align 8 dereferenceable(16) ptr @_ZNK32pxrInternal_v0_24__pxrReserved__9GfRange2d6GetMaxEv(ptr noundef nonnull align 8 dereferenceable(32) %0) #2 comdat align 2 {
  %2 = alloca ptr, align 8
  store ptr %0, ptr %2, align 8
  %3 = load ptr, ptr %2, align 8
  %4 = getelementptr inbounds nuw %"class.pxrInternal_v0_24__pxrReserved__::GfRange2d", ptr %3, i32 0, i32 1
  ret ptr %4
}

; Function Attrs: mustprogress nounwind uwtable
define linkonce_odr noundef nonnull align 8 dereferenceable(8) ptr @_ZNK32pxrInternal_v0_24__pxrReserved__7GfVec2dixEm(ptr noundef nonnull align 8 dereferenceable(16) %0, i64 noundef %1) #2 comdat align 2 {
  %3 = alloca ptr, align 8
  %4 = alloca i64, align 8
  store ptr %0, ptr %3, align 8
  store i64 %1, ptr %4, align 8
  %5 = load ptr, ptr %3, align 8
  %6 = getelementptr inbounds nuw %"class.pxrInternal_v0_24__pxrReserved__::GfVec2d", ptr %5, i32 0, i32 0
  %7 = load i64, ptr %4, align 8
  %8 = getelementptr inbounds [2 x double], ptr %6, i64 0, i64 %7
  ret ptr %8
}

; Function Attrs: mustprogress nounwind uwtable
define linkonce_odr noundef nonnull align 8 dereferenceable(16) ptr @_ZNK32pxrInternal_v0_24__pxrReserved__9GfRange2d6GetMinEv(ptr noundef nonnull align 8 dereferenceable(32) %0) #2 comdat align 2 {
  %2 = alloca ptr, align 8
  store ptr %0, ptr %2, align 8
  %3 = load ptr, ptr %2, align 8
  %4 = getelementptr inbounds nuw %"class.pxrInternal_v0_24__pxrReserved__::GfRange2d", ptr %3, i32 0, i32 0
  ret ptr %4
}

; Function Attrs: mustprogress uwtable
define linkonce_odr noundef nonnull align 8 dereferenceable(128) ptr @_ZN32pxrInternal_v0_24__pxrReserved__10GfMatrix4d11SetIdentityEv(ptr noundef nonnull align 8 dereferenceable(128) %0) #0 comdat align 2 {
  %2 = alloca ptr, align 8
  store ptr %0, ptr %2, align 8
  %3 = load ptr, ptr %2, align 8
  %4 = call noundef nonnull align 8 dereferenceable(128) ptr @_ZN32pxrInternal_v0_24__pxrReserved__10GfMatrix4d11SetDiagonalEd(ptr noundef nonnull align 8 dereferenceable(128) %3, double noundef 1.000000e+00)
  ret ptr %4
}

; Function Attrs: mustprogress uwtable
define void @_ZNK32pxrInternal_v0_24__pxrReserved__9GfFrustum23ComputeProjectionMatrixEv(ptr dead_on_unwind noalias writable sret(%"class.pxrInternal_v0_24__pxrReserved__::GfMatrix4d") align 8 %0, ptr noundef nonnull align 8 dereferenceable(128) %1) #0 align 2 {
  %3 = alloca ptr, align 8
  %4 = alloca double, align 8
  %5 = alloca double, align 8
  %6 = alloca double, align 8
  %7 = alloca double, align 8
  %8 = alloca double, align 8
  %9 = alloca double, align 8
  %10 = alloca double, align 8
  %11 = alloca double, align 8
  %12 = alloca double, align 8
  store ptr %1, ptr %3, align 8
  %13 = load ptr, ptr %3, align 8
  %14 = call noundef nonnull align 8 dereferenceable(128) ptr @_ZN32pxrInternal_v0_24__pxrReserved__10GfMatrix4d11SetIdentityEv(ptr noundef nonnull align 8 dereferenceable(128) %0)
  %15 = getelementptr inbounds nuw %"class.pxrInternal_v0_24__pxrReserved__::GfFrustum", ptr %13, i32 0, i32 2
  %16 = call noundef nonnull align 8 dereferenceable(16) ptr @_ZNK32pxrInternal_v0_24__pxrReserved__9GfRange2d6GetMinEv(ptr noundef nonnull align 8 dereferenceable(32) %15)
  %17 = call noundef nonnull align 8 dereferenceable(8) ptr @_ZNK32pxrInternal_v0_24__pxrReserved__7GfVec2dixEm(ptr noundef nonnull align 8 dereferenceable(16) %16, i64 noundef 0)
  %18 = load double, ptr %17, align 8
  store double %18, ptr %4, align 8
  %19 = getelementptr inbounds nuw %"class.pxrInternal_v0_24__pxrReserved__::GfFrustum", ptr %13, i32 0, i32 2
  %20 = call noundef nonnull align 8 dereferenceable(16) ptr @_ZNK32pxrInternal_v0_24__pxrReserved__9GfRange2d6GetMaxEv(ptr noundef nonnull align 8 dereferenceable(32) %19)
  %21 = call noundef nonnull align 8 dereferenceable(8) ptr @_ZNK32pxrInternal_v0_24__pxrReserved__7GfVec2dixEm(ptr noundef nonnull align 8 dereferenceable(16) %20, i64 noundef 0)
  %22 = load double, ptr %21, align 8
  store double %22, ptr %5, align 8
  %23 = getelementptr inbounds nuw %"class.pxrInternal_v0_24__pxrReserved__::GfFrustum", ptr %13, i32 0, i32 2
  %24 = call noundef nonnull align 8 dereferenceable(16) ptr @_ZNK32pxrInternal_v0_24__pxrReserved__9GfRange2d6GetMinEv(ptr noundef nonnull align 8 dereferenceable(32) %23)
  %25 = call noundef nonnull align 8 dereferenceable(8) ptr @_ZNK32pxrInternal_v0_24__pxrReserved__7GfVec2dixEm(ptr noundef nonnull align 8 dereferenceable(16) %24, i64 noundef 1)
  %26 = load double, ptr %25, align 8
  store double %26, ptr %6, align 8
  %27 = getelementptr inbounds nuw %"class.pxrInternal_v0_24__pxrReserved__::GfFrustum", ptr %13, i32 0, i32 2
  %28 = call noundef nonnull align 8 dereferenceable(16) ptr @_ZNK32pxrInternal_v0_24__pxrReserved__9GfRange2d6GetMaxEv(ptr noundef nonnull align 8 dereferenceable(32) %27)
  %29 = call noundef nonnull align 8 dereferenceable(8) ptr @_ZNK32pxrInternal_v0_24__pxrReserved__7GfVec2dixEm(ptr noundef nonnull align 8 dereferenceable(16) %28, i64 noundef 1)
  %30 = load double, ptr %29, align 8
  store double %30, ptr %7, align 8
  %31 = getelementptr inbounds nuw %"class.pxrInternal_v0_24__pxrReserved__::GfFrustum", ptr %13, i32 0, i32 3
  %32 = call noundef double @_ZNK32pxrInternal_v0_24__pxrReserved__9GfRange1d6GetMinEv(ptr noundef nonnull align 8 dereferenceable(16) %31)
  store double %32, ptr %8, align 8
  %33 = getelementptr inbounds nuw %"class.pxrInternal_v0_24__pxrReserved__::GfFrustum", ptr %13, i32 0, i32 3
  %34 = call noundef double @_ZNK32pxrInternal_v0_24__pxrReserved__9GfRange1d6GetMaxEv(ptr noundef nonnull align 8 dereferenceable(16) %33)
  store double %34, ptr %9, align 8
  %35 = load double, ptr %5, align 8
  %36 = load double, ptr %4, align 8
  %37 = fsub double %35, %36
  store double %37, ptr %10, align 8
  %38 = load double, ptr %7, align 8
  %39 = load double, ptr %6, align 8
  %40 = fsub double %38, %39
  store double %40, ptr %11, align 8
  %41 = load double, ptr %9, align 8
  %42 = load double, ptr %8, align 8
  %43 = fsub double %41, %42
  store double %43, ptr %12, align 8
  %44 = getelementptr inbounds nuw %"class.pxrInternal_v0_24__pxrReserved__::GfFrustum", ptr %13, i32 0, i32 5
  %45 = load i32, ptr %44, align 8
  %46 = icmp eq i32 %45, 0
  br i1 %46, label %47, label %84

47:                                               ; preds = %2
  %48 = load double, ptr %10, align 8
  %49 = fdiv double 2.000000e+00, %48
  %50 = call noundef ptr @_ZN32pxrInternal_v0_24__pxrReserved__10GfMatrix4dixEi(ptr noundef nonnull align 8 dereferenceable(128) %0, i32 noundef 0)
  %51 = getelementptr inbounds double, ptr %50, i64 0
  store double %49, ptr %51, align 8
  %52 = load double, ptr %11, align 8
  %53 = fdiv double 2.000000e+00, %52
  %54 = call noundef ptr @_ZN32pxrInternal_v0_24__pxrReserved__10GfMatrix4dixEi(ptr noundef nonnull align 8 dereferenceable(128) %0, i32 noundef 1)
  %55 = getelementptr inbounds double, ptr %54, i64 1
  store double %53, ptr %55, align 8
  %56 = load double, ptr %12, align 8
  %57 = fdiv double -2.000000e+00, %56
  %58 = call noundef ptr @_ZN32pxrInternal_v0_24__pxrReserved__10GfMatrix4dixEi(ptr noundef nonnull align 8 dereferenceable(128) %0, i32 noundef 2)
  %59 = getelementptr inbounds double, ptr %58, i64 2
  store double %57, ptr %59, align 8
  %60 = load double, ptr %5, align 8
  %61 = load double, ptr %4, align 8
  %62 = fadd double %60, %61
  %63 = fneg double %62
  %64 = load double, ptr %10, align 8
  %65 = fdiv double %63, %64
  %66 = call noundef ptr @_ZN32pxrInternal_v0_24__pxrReserved__10GfMatrix4dixEi(ptr noundef nonnull align 8 dereferenceable(128) %0, i32 noundef 3)
  %67 = getelementptr inbounds double, ptr %66, i64 0
  store double %65, ptr %67, align 8
  %68 = load double, ptr %7, align 8
  %69 = load double, ptr %6, align 8
  %70 = fadd double %68, %69
  %71 = fneg double %70
  %72 = load double, ptr %11, align 8
  %73 = fdiv double %71, %72
  %74 = call noundef ptr @_ZN32pxrInternal_v0_24__pxrReserved__10GfMatrix4dixEi(ptr noundef nonnull align 8 dereferenceable(128) %0, i32 noundef 3)
  %75 = getelementptr inbounds double, ptr %74, i64 1
  store double %73, ptr %75, align 8
  %76 = load double, ptr %9, align 8
  %77 = load double, ptr %8, align 8
  %78 = fadd double %76, %77
  %79 = fneg double %78
  %80 = load double, ptr %12, align 8
  %81 = fdiv double %79, %80
  %82 = call noundef ptr @_ZN32pxrInternal_v0_24__pxrReserved__10GfMatrix4dixEi(ptr noundef nonnull align 8 dereferenceable(128) %0, i32 noundef 3)
  %83 = getelementptr inbounds double, ptr %82, i64 2
  store double %81, ptr %83, align 8
  br label %127

84:                                               ; preds = %2
  %85 = load double, ptr %10, align 8
  %86 = fdiv double 2.000000e+00, %85
  %87 = call noundef ptr @_ZN32pxrInternal_v0_24__pxrReserved__10GfMatrix4dixEi(ptr noundef nonnull align 8 dereferenceable(128) %0, i32 noundef 0)
  %88 = getelementptr inbounds double, ptr %87, i64 0
  store double %86, ptr %88, align 8
  %89 = load double, ptr %11, align 8
  %90 = fdiv double 2.000000e+00, %89
  %91 = call noundef ptr @_ZN32pxrInternal_v0_24__pxrReserved__10GfMatrix4dixEi(ptr noundef nonnull align 8 dereferenceable(128) %0, i32 noundef 1)
  %92 = getelementptr inbounds double, ptr %91, i64 1
  store double %90, ptr %92, align 8
  %93 = load double, ptr %9, align 8
  %94 = load double, ptr %8, align 8
  %95 = fadd double %93, %94
  %96 = fneg double %95
  %97 = load double, ptr %12, align 8
  %98 = fdiv double %96, %97
  %99 = call noundef ptr @_ZN32pxrInternal_v0_24__pxrReserved__10GfMatrix4dixEi(ptr noundef nonnull align 8 dereferenceable(128) %0, i32 noundef 2)
  %100 = getelementptr inbounds double, ptr %99, i64 2
  store double %98, ptr %100, align 8
  %101 = load double, ptr %5, align 8
  %102 = load double, ptr %4, align 8
  %103 = fadd double %101, %102
  %104 = load double, ptr %10, align 8
  %105 = fdiv double %103, %104
  %106 = call noundef ptr @_ZN32pxrInternal_v0_24__pxrReserved__10GfMatrix4dixEi(ptr noundef nonnull align 8 dereferenceable(128) %0, i32 noundef 2)
  %107 = getelementptr inbounds double, ptr %106, i64 0
  store double %105, ptr %107, align 8
  %108 = load double, ptr %7, align 8
  %109 = load double, ptr %6, align 8
  %110 = fadd double %108, %109
  %111 = load double, ptr %11, align 8
  %112 = fdiv double %110, %111
  %113 = call noundef ptr @_ZN32pxrInternal_v0_24__pxrReserved__10GfMatrix4dixEi(ptr noundef nonnull align 8 dereferenceable(128) %0, i32 noundef 2)
  %114 = getelementptr inbounds double, ptr %113, i64 1
  store double %112, ptr %114, align 8
  %115 = load double, ptr %8, align 8
  %116 = fmul double -2.000000e+00, %115
  %117 = load double, ptr %9, align 8
  %118 = fmul double %116, %117
  %119 = load double, ptr %12, align 8
  %120 = fdiv double %118, %119
  %121 = call noundef ptr @_ZN32pxrInternal_v0_24__pxrReserved__10GfMatrix4dixEi(ptr noundef nonnull align 8 dereferenceable(128) %0, i32 noundef 3)
  %122 = getelementptr inbounds double, ptr %121, i64 2
  store double %120, ptr %122, align 8
  %123 = call noundef ptr @_ZN32pxrInternal_v0_24__pxrReserved__10GfMatrix4dixEi(ptr noundef nonnull align 8 dereferenceable(128) %0, i32 noundef 2)
  %124 = getelementptr inbounds double, ptr %123, i64 3
  store double -1.000000e+00, ptr %124, align 8
  %125 = call noundef ptr @_ZN32pxrInternal_v0_24__pxrReserved__10GfMatrix4dixEi(ptr noundef nonnull align 8 dereferenceable(128) %0, i32 noundef 3)
  %126 = getelementptr inbounds double, ptr %125, i64 3
  store double 0.000000e+00, ptr %126, align 8
  br label %127

127:                                              ; preds = %84, %47
  ret void
}