; Function Attrs: mustprogress uwtable
define void @_ZNK32pxrInternal_v0_24__pxrReserved__9GfFrustum23ComputeProjectionMatrixEv(ptr dead_on_unwind noalias nonnull writable sret(%"class.pxrInternal_v0_24__pxrReserved__::GfMatrix4d") align 8 %0, ptr nocapture noundef nonnull readonly align 8 dereferenceable(128) %1) local_unnamed_addr #0 align 2 {
  %3 = tail call noundef nonnull align 8 dereferenceable(128) ptr @_ZN32pxrInternal_v0_24__pxrReserved__10GfMatrix4d11SetDiagonalEd(ptr noundef nonnull align 8 dereferenceable(128) %0, double noundef 1.000000e+00)
  %4 = getelementptr inbounds nuw i8, ptr %1, i64 56
  %5 = load double, ptr %4, align 8
  %6 = getelementptr inbounds i8, ptr %1, i64 72
  %7 = load double, ptr %6, align 8
  %8 = getelementptr inbounds i8, ptr %1, i64 64
  %9 = load double, ptr %8, align 8
  %10 = getelementptr inbounds i8, ptr %1, i64 80
  %11 = load double, ptr %10, align 8
  %12 = getelementptr inbounds nuw i8, ptr %1, i64 88
  %13 = load double, ptr %12, align 8
  %14 = getelementptr inbounds i8, ptr %1, i64 96
  %15 = load double, ptr %14, align 8
  %16 = fsub double %7, %5
  %17 = fsub double %11, %9
  %18 = getelementptr inbounds nuw i8, ptr %1, i64 112
  %19 = load i32, ptr %18, align 8
  %20 = icmp eq i32 %19, 0
  %21 = fdiv double 2.000000e+00, %16
  store double %21, ptr %0, align 8
  br i1 %20, label %22, label %33

22:                                               ; preds = %2
  %23 = fadd double %5, %7
  %24 = fneg double %23
  %25 = fdiv double %24, %16
  %26 = getelementptr inbounds i8, ptr %0, i64 96
  store double %25, ptr %26, align 8
  %27 = fadd double %9, %11
  %28 = fneg double %27
  %29 = fdiv double %28, %17
  %30 = getelementptr inbounds i8, ptr %0, i64 104
  store double %29, ptr %30, align 8
  %31 = fadd double %13, %15
  %32 = fneg double %31
  br label %46

33:                                               ; preds = %2
  %34 = fadd double %13, %15
  %35 = fneg double %34
  %36 = getelementptr inbounds i8, ptr %0, i64 64
  %37 = fadd double %5, %7
  %38 = fdiv double %37, %16
  store double %38, ptr %36, align 8
  %39 = fadd double %9, %11
  %40 = fdiv double %39, %17
  %41 = getelementptr inbounds i8, ptr %0, i64 72
  store double %40, ptr %41, align 8
  %42 = fmul double %13, -2.000000e+00
  %43 = fmul double %42, %15
  %44 = getelementptr inbounds i8, ptr %0, i64 88
  store double -1.000000e+00, ptr %44, align 8
  %45 = getelementptr inbounds i8, ptr %0, i64 120
  store double 0.000000e+00, ptr %45, align 8
  br label %46

46:                                               ; preds = %33, %22
  %.pn = phi double [ -2.000000e+00, %22 ], [ %35, %33 ]
  %.pn35 = phi double [ %32, %22 ], [ %43, %33 ]
  %47 = fsub double %15, %13
  %.sink = fdiv double %.pn35, %47
  %.sink33 = fdiv double %.pn, %47
  %.sink34 = fdiv double 2.000000e+00, %17
  %48 = getelementptr inbounds i8, ptr %0, i64 40
  store double %.sink34, ptr %48, align 8
  %49 = getelementptr inbounds i8, ptr %0, i64 80
  store double %.sink33, ptr %49, align 8
  %50 = getelementptr inbounds i8, ptr %0, i64 112
  store double %.sink, ptr %50, align 8
  ret void
}